; Function Attrs: mustprogress uwtable
define void @_ZN6icu_7511UXMLElementC2EPKNS_10UXMLParserEPKNS_13UnicodeStringER10UErrorCode(ptr noundef nonnull align 8 dereferenceable(216) %this, ptr noundef %parser, ptr noundef %name, ptr noundef nonnull align 4 dereferenceable(4) %errorCode) unnamed_addr #1 align 2 personality ptr @__gxx_personality_v0 {
invoke.cont:
  store ptr getelementptr inbounds ({ [5 x ptr] }, ptr @_ZTVN6icu_7511UXMLElementE, i64 0, i32 0, i64 2), ptr %this, align 8
  %fParser = getelementptr inbounds i8, ptr %this, i64 8
  store ptr %parser, ptr %fParser, align 8
  %fName = getelementptr inbounds i8, ptr %this, i64 16
  store ptr %name, ptr %fName, align 8
  %fContent = getelementptr inbounds i8, ptr %this, i64 24
  store ptr getelementptr inbounds ({ [13 x ptr] }, ptr @_ZTVN6icu_7513UnicodeStringE, i64 0, i32 0, i64 2), ptr %fContent, align 8
  %fUnion2.i = getelementptr inbounds i8, ptr %this, i64 32
  store i16 2, ptr %fUnion2.i, align 8
  %fAttNames = getelementptr inbounds i8, ptr %this, i64 88
  invoke void @_ZN6icu_757UVectorC1ER10UErrorCode(ptr noundef nonnull align 8 dereferenceable(40) %fAttNames, ptr noundef nonnull align 4 dereferenceable(4) %errorCode)
          to label %invoke.cont3 unwind label %lpad2

invoke.cont3:                                     ; preds = %invoke.cont
  %fAttValues = getelementptr inbounds i8, ptr %this, i64 128
  invoke void @_ZN6icu_757UVectorC1ER10UErrorCode(ptr noundef nonnull align 8 dereferenceable(40) %fAttValues, ptr noundef nonnull align 4 dereferenceable(4) %errorCode)
          to label %invoke.cont5 unwind label %lpad4

invoke.cont5:                                     ; preds = %invoke.cont3
  %fChildren = getelementptr inbounds i8, ptr %this, i64 168
  invoke void @_ZN6icu_757UVectorC1ER10UErrorCode(ptr noundef nonnull align 8 dereferenceable(40) %fChildren, ptr noundef nonnull align 4 dereferenceable(4) %errorCode)
          to label %invoke.cont7 unwind label %lpad6

invoke.cont7:                                     ; preds = %invoke.cont5
  %fParent = getelementptr inbounds i8, ptr %this, i64 208
  store ptr null, ptr %fParent, align 8
  ret void

lpad2:                                            ; preds = %invoke.cont
  %0 = landingpad { ptr, i32 }
          cleanup
  br label %ehcleanup8

lpad4:                                            ; preds = %invoke.cont3
  %1 = landingpad { ptr, i32 }
          cleanup
  br label %ehcleanup

lpad6:                                            ; preds = %invoke.cont5
  %2 = landingpad { ptr, i32 }
          cleanup
  tail call void @_ZN6icu_757UVectorD1Ev(ptr noundef nonnull align 8 dereferenceable(40) %fAttValues) #11
  br label %ehcleanup

ehcleanup:                                        ; preds = %lpad6, %lpad4
  %.pn = phi { ptr, i32 } [ %2, %lpad6 ], [ %1, %lpad4 ]
  tail call void @_ZN6icu_757UVectorD1Ev(ptr noundef nonnull align 8 dereferenceable(40) %fAttNames) #11
  br label %ehcleanup8

ehcleanup8:                                       ; preds = %ehcleanup, %lpad2
  %.pn.pn = phi { ptr, i32 } [ %.pn, %ehcleanup ], [ %0, %lpad2 ]
  tail call void @_ZN6icu_7513UnicodeStringD1Ev(ptr noundef nonnull align 8 dereferenceable(64) %fContent) #11
  tail call void @_ZN6icu_757UObjectD2Ev(ptr noundef nonnull align 8 dereferenceable(8) %this) #11
  resume { ptr, i32 } %.pn.pn
}